; Function Attrs: mustprogress nounwind uwtable
define dso_local void @_ZN5clang5index24generateUSRForGlobalEnumEN4llvm9StringRefERNS1_11raw_ostreamES2_(ptr %0, i64 %1, ptr noundef nonnull align 8 dereferenceable(48) %2, ptr %3, i64 %4) local_unnamed_addr #0 {
  %6 = icmp eq i64 %4, 0
  br i1 %6, label %_ZN4llvm11raw_ostreamlsENS_9StringRefE.exit, label %7

7:                                                ; preds = %5
  %8 = getelementptr inbounds nuw i8, ptr %2, i64 24
  %9 = load ptr, ptr %8, align 8
  %10 = getelementptr inbounds nuw i8, ptr %2, i64 32
  %11 = load ptr, ptr %10, align 8
  %12 = ptrtoint ptr %9 to i64
  %13 = ptrtoint ptr %11 to i64
  %14 = sub i64 %12, %13
  %15 = icmp ult i64 %14, 3
  br i1 %15, label %16, label %18

16:                                               ; preds = %7
  %17 = tail call noundef nonnull align 8 dereferenceable(48) ptr @_ZN4llvm11raw_ostream5writeEPKcm(ptr noundef nonnull align 8 dereferenceable(48) %2, ptr noundef nonnull @.str.6, i64 noundef 3) #14
  %.phi.trans.insert = getelementptr inbounds nuw i8, ptr %17, i64 32
  %.pre = load ptr, ptr %.phi.trans.insert, align 8
  br label %_ZN4llvm11raw_ostreamlsEPKc.exit

18:                                               ; preds = %7
  tail call void @llvm.memcpy.p0.p0.i64(ptr noundef nonnull align 1 dereferenceable(3) %11, ptr noundef nonnull align 1 dereferenceable(3) @.str.6, i64 3, i1 false)
  %19 = load ptr, ptr %10, align 8
  %20 = getelementptr inbounds nuw i8, ptr %19, i64 3
  store ptr %20, ptr %10, align 8
  br label %_ZN4llvm11raw_ostreamlsEPKc.exit

_ZN4llvm11raw_ostreamlsEPKc.exit:                 ; preds = %16, %18
  %21 = phi ptr [ %.pre, %16 ], [ %20, %18 ]
  %.0.i.i = phi ptr [ %17, %16 ], [ %2, %18 ]
  %22 = getelementptr inbounds nuw i8, ptr %.0.i.i, i64 24
  %23 = load ptr, ptr %22, align 8
  %24 = ptrtoint ptr %23 to i64
  %25 = ptrtoint ptr %21 to i64
  %26 = sub i64 %24, %25
  %27 = icmp ugt i64 %4, %26
  br i1 %27, label %28, label %30

28:                                               ; preds = %_ZN4llvm11raw_ostreamlsEPKc.exit
  %29 = tail call noundef nonnull align 8 dereferenceable(48) ptr @_ZN4llvm11raw_ostream5writeEPKcm(ptr noundef nonnull align 8 dereferenceable(48) %.0.i.i, ptr noundef %3, i64 noundef %4) #14
  br label %_ZN4llvm11raw_ostreamlsENS_9StringRefE.exit

30:                                               ; preds = %_ZN4llvm11raw_ostreamlsEPKc.exit
  %31 = getelementptr inbounds nuw i8, ptr %.0.i.i, i64 32
  tail call void @llvm.memcpy.p0.p0.i64(ptr align 1 %21, ptr align 1 %3, i64 %4, i1 false)
  %32 = load ptr, ptr %31, align 8
  %33 = getelementptr inbounds i8, ptr %32, i64 %4
  store ptr %33, ptr %31, align 8
  br label %_ZN4llvm11raw_ostreamlsENS_9StringRefE.exit

_ZN4llvm11raw_ostreamlsENS_9StringRefE.exit:      ; preds = %30, %28, %5
  %34 = getelementptr inbounds nuw i8, ptr %2, i64 24
  %35 = load ptr, ptr %34, align 8
  %36 = getelementptr inbounds nuw i8, ptr %2, i64 32
  %37 = load ptr, ptr %36, align 8
  %38 = ptrtoint ptr %35 to i64
  %39 = ptrtoint ptr %37 to i64
  %40 = sub i64 %38, %39
  %41 = icmp ult i64 %40, 3
  br i1 %41, label %42, label %44

42:                                               ; preds = %_ZN4llvm11raw_ostreamlsENS_9StringRefE.exit
  %43 = tail call noundef nonnull align 8 dereferenceable(48) ptr @_ZN4llvm11raw_ostream5writeEPKcm(ptr noundef nonnull align 8 dereferenceable(48) %2, ptr noundef nonnull @.str.8, i64 noundef 3) #14
  %.phi.trans.insert13 = getelementptr inbounds nuw i8, ptr %43, i64 32
  %.pre14 = load ptr, ptr %.phi.trans.insert13, align 8
  br label %_ZN4llvm11raw_ostreamlsEPKc.exit8

44:                                               ; preds = %_ZN4llvm11raw_ostreamlsENS_9StringRefE.exit
  tail call void @llvm.memcpy.p0.p0.i64(ptr noundef nonnull align 1 dereferenceable(3) %37, ptr noundef nonnull align 1 dereferenceable(3) @.str.8, i64 3, i1 false)
  %45 = load ptr, ptr %36, align 8
  %46 = getelementptr inbounds nuw i8, ptr %45, i64 3
  store ptr %46, ptr %36, align 8
  br label %_ZN4llvm11raw_ostreamlsEPKc.exit8

_ZN4llvm11raw_ostreamlsEPKc.exit8:                ; preds = %42, %44
  %47 = phi ptr [ %.pre14, %42 ], [ %46, %44 ]
  %.0.i.i7 = phi ptr [ %43, %42 ], [ %2, %44 ]
  %48 = getelementptr inbounds nuw i8, ptr %.0.i.i7, i64 24
  %49 = load ptr, ptr %48, align 8
  %50 = getelementptr inbounds nuw i8, ptr %.0.i.i7, i64 32
  %51 = ptrtoint ptr %49 to i64
  %52 = ptrtoint ptr %47 to i64
  %53 = sub i64 %51, %52
  %54 = icmp ugt i64 %1, %53
  br i1 %54, label %55, label %57

55:                                               ; preds = %_ZN4llvm11raw_ostreamlsEPKc.exit8
  %56 = tail call noundef nonnull align 8 dereferenceable(48) ptr @_ZN4llvm11raw_ostream5writeEPKcm(ptr noundef nonnull align 8 dereferenceable(48) %.0.i.i7, ptr noundef %0, i64 noundef %1) #14
  br label %_ZN4llvm11raw_ostreamlsENS_9StringRefE.exit11

57:                                               ; preds = %_ZN4llvm11raw_ostreamlsEPKc.exit8
  %.not.i9 = icmp eq i64 %1, 0
  br i1 %.not.i9, label %_ZN4llvm11raw_ostreamlsENS_9StringRefE.exit11, label %58

58:                                               ; preds = %57
  tail call void @llvm.memcpy.p0.p0.i64(ptr align 1 %47, ptr align 1 %0, i64 %1, i1 false)
  %59 = load ptr, ptr %50, align 8
  %60 = getelementptr inbounds i8, ptr %59, i64 %1
  store ptr %60, ptr %50, align 8
  br label %_ZN4llvm11raw_ostreamlsENS_9StringRefE.exit11

_ZN4llvm11raw_ostreamlsENS_9StringRefE.exit11:    ; preds = %55, %57, %58
  ret void
}